; Function Attrs: nounwind uwtable
define internal i32 @default_yield(ptr noundef %0) #0 {
  %2 = getelementptr inbounds nuw i8, ptr %0, i64 24
  %3 = load ptr, ptr %2, align 8, !tbaa !31
  %.not = icmp eq ptr %3, null
  br i1 %.not, label %40, label %4

4:                                                ; preds = %1
  %5 = load i8, ptr %3, align 8, !tbaa !3
  %6 = icmp eq i8 %5, 1
  br i1 %6, label %7, label %10

7:                                                ; preds = %4
  %8 = getelementptr inbounds nuw i8, ptr %3, i64 504
  %9 = tail call i32 @pthread_mutex_lock(ptr noundef nonnull %8) #5
  br label %10

10:                                               ; preds = %7, %4
  %11 = getelementptr inbounds nuw i8, ptr %0, i64 20
  %12 = load i32, ptr %11, align 4, !tbaa !27
  %13 = icmp slt i32 %12, 0
  br i1 %13, label %17, label %14

14:                                               ; preds = %10
  %15 = getelementptr inbounds nuw i8, ptr %3, i64 196
  %16 = load i32, ptr %15, align 4, !tbaa !22
  %.not22 = icmp slt i32 %12, %16
  br i1 %.not22, label %28, label %17

17:                                               ; preds = %14, %10
  %18 = load i8, ptr %3, align 8, !tbaa !3
  %19 = icmp eq i8 %18, 1
  br i1 %19, label %20, label %23

20:                                               ; preds = %17
  %21 = getelementptr inbounds nuw i8, ptr %3, i64 504
  %22 = tail call i32 @pthread_mutex_unlock(ptr noundef nonnull %21) #5
  %.pre = load i32, ptr %11, align 4, !tbaa !27
  br label %23

23:                                               ; preds = %20, %17
  %24 = phi i32 [ %.pre, %20 ], [ %12, %17 ]
  %25 = getelementptr inbounds nuw i8, ptr %3, i64 72
  %26 = load ptr, ptr %25, align 8, !tbaa !23
  %27 = tail call i32 (ptr, i32, ptr, ...) %26(ptr noundef nonnull %3, i32 noundef 4, ptr noundef nonnull @.str, i32 noundef %24) #5
  br label %40

28:                                               ; preds = %14
  %29 = getelementptr inbounds nuw i8, ptr %3, i64 472
  %30 = load ptr, ptr %29, align 8, !tbaa !24
  %31 = zext nneg i32 %12 to i64
  %32 = getelementptr inbounds nuw ptr, ptr %30, i64 %31
  %33 = load ptr, ptr %32, align 8, !tbaa !25
  %34 = tail call i32 @internal_validate_next_chunk(ptr noundef nonnull %0, ptr noundef nonnull %3, ptr noundef %33) #5
  %35 = load i8, ptr %3, align 8, !tbaa !3
  %36 = icmp eq i8 %35, 1
  br i1 %36, label %37, label %40

37:                                               ; preds = %28
  %38 = getelementptr inbounds nuw i8, ptr %3, i64 504
  %39 = tail call i32 @pthread_mutex_unlock(ptr noundef nonnull %38) #5
  br label %40

40:                                               ; preds = %37, %28, %1, %23
  %.0 = phi i32 [ %27, %23 ], [ 2, %1 ], [ %34, %28 ], [ %34, %37 ]
  ret i32 %.0
}